target datalayout = "e-m:e-p270:32:32-p271:32:32-p272:64:64-i64:64-i128:128-f80:128-n8:16:32:64-S128"
target triple = "x86_64-pc-linux-gnu"

%struct.FunctionCallInfoBaseData = type { ptr, ptr, ptr, i32, i8, i16, [0 x %struct.NullableDatum] }
%struct.NullableDatum = type { i64, i8 }
%struct.Interval = type { i64, i32, i32 }

@.str.3 = private unnamed_addr constant [7 x i8] c"date.c\00", align 1
@.str.25 = private unnamed_addr constant [44 x i8] c"cannot subtract infinite interval from time\00", align 1
@__func__.time_mi_interval = private unnamed_addr constant [17 x i8] c"time_mi_interval\00", align 1

; Function Attrs: inlinehint nounwind uwtable
define internal i64 @Int64GetDatum(i64 noundef %0) #4 {
  %2 = alloca i64, align 8
  store i64 %0, ptr %2, align 8
  %3 = load i64, ptr %2, align 8
  ret i64 %3
}

; Function Attrs: inlinehint nounwind uwtable
define internal ptr @DatumGetPointer(i64 noundef %0) #4 {
  %2 = alloca i64, align 8
  store i64 %0, ptr %2, align 8
  %3 = load i64, ptr %2, align 8
  %4 = inttoptr i64 %3 to ptr
  ret ptr %4
}

; Function Attrs: inlinehint nounwind uwtable
define internal i64 @DatumGetInt64(i64 noundef %0) #4 {
  %2 = alloca i64, align 8
  store i64 %0, ptr %2, align 8
  %3 = load i64, ptr %2, align 8
  ret i64 %3
}

; Function Attrs: inlinehint nounwind uwtable
define internal i64 @TimeADTGetDatum(i64 noundef %0) #4 {
  %2 = alloca i64, align 8
  store i64 %0, ptr %2, align 8
  %3 = load i64, ptr %2, align 8
  %4 = call i64 @Int64GetDatum(i64 noundef %3)
  ret i64 %4
}

; Function Attrs: inlinehint nounwind uwtable
define internal ptr @DatumGetIntervalP(i64 noundef %0) #4 {
  %2 = alloca i64, align 8
  store i64 %0, ptr %2, align 8
  %3 = load i64, ptr %2, align 8
  %4 = call ptr @DatumGetPointer(i64 noundef %3)
  ret ptr %4
}

; Function Attrs: inlinehint nounwind uwtable
define internal i64 @DatumGetTimeADT(i64 noundef %0) #4 {
  %2 = alloca i64, align 8
  store i64 %0, ptr %2, align 8
  %3 = load i64, ptr %2, align 8
  %4 = call i64 @DatumGetInt64(i64 noundef %3)
  ret i64 %4
}

; Function Attrs: nounwind uwtable
define dso_local i64 @time_mi_interval(ptr noundef %0) #0 {
  %2 = alloca ptr, align 8
  %3 = alloca i64, align 8
  %4 = alloca ptr, align 8
  %5 = alloca i64, align 8
  store ptr %0, ptr %2, align 8
  call void @llvm.lifetime.start.p0(i64 8, ptr %3) #9
  %6 = load ptr, ptr %2, align 8
  %7 = getelementptr inbounds nuw %struct.FunctionCallInfoBaseData, ptr %6, i32 0, i32 6
  %8 = getelementptr inbounds [0 x %struct.NullableDatum], ptr %7, i64 0, i64 0
  %9 = getelementptr inbounds nuw %struct.NullableDatum, ptr %8, i32 0, i32 0
  %10 = load i64, ptr %9, align 8
  %11 = call i64 @DatumGetTimeADT(i64 noundef %10)
  store i64 %11, ptr %3, align 8
  call void @llvm.lifetime.start.p0(i64 8, ptr %4) #9
  %12 = load ptr, ptr %2, align 8
  %13 = getelementptr inbounds nuw %struct.FunctionCallInfoBaseData, ptr %12, i32 0, i32 6
  %14 = getelementptr inbounds [0 x %struct.NullableDatum], ptr %13, i64 0, i64 1
  %15 = getelementptr inbounds nuw %struct.NullableDatum, ptr %14, i32 0, i32 0
  %16 = load i64, ptr %15, align 8
  %17 = call ptr @DatumGetIntervalP(i64 noundef %16)
  store ptr %17, ptr %4, align 8
  call void @llvm.lifetime.start.p0(i64 8, ptr %5) #9
  %18 = load ptr, ptr %4, align 8
  %19 = getelementptr inbounds nuw %struct.Interval, ptr %18, i32 0, i32 2
  %20 = load i32, ptr %19, align 4
  %21 = icmp eq i32 %20, -2147483648
  br i1 %21, label %22, label %32

22:                                               ; preds = %1
  %23 = load ptr, ptr %4, align 8
  %24 = getelementptr inbounds nuw %struct.Interval, ptr %23, i32 0, i32 1
  %25 = load i32, ptr %24, align 8
  %26 = icmp eq i32 %25, -2147483648
  br i1 %26, label %27, label %32

27:                                               ; preds = %22
  %28 = load ptr, ptr %4, align 8
  %29 = getelementptr inbounds nuw %struct.Interval, ptr %28, i32 0, i32 0
  %30 = load i64, ptr %29, align 8
  %31 = icmp eq i64 %30, -9223372036854775808
  br i1 %31, label %47, label %32

32:                                               ; preds = %27, %22, %1
  %33 = load ptr, ptr %4, align 8
  %34 = getelementptr inbounds nuw %struct.Interval, ptr %33, i32 0, i32 2
  %35 = load i32, ptr %34, align 4
  %36 = icmp eq i32 %35, 2147483647
  br i1 %36, label %37, label %59

37:                                               ; preds = %32
  %38 = load ptr, ptr %4, align 8
  %39 = getelementptr inbounds nuw %struct.Interval, ptr %38, i32 0, i32 1
  %40 = load i32, ptr %39, align 8
  %41 = icmp eq i32 %40, 2147483647
  br i1 %41, label %42, label %59

42:                                               ; preds = %37
  %43 = load ptr, ptr %4, align 8
  %44 = getelementptr inbounds nuw %struct.Interval, ptr %43, i32 0, i32 0
  %45 = load i64, ptr %44, align 8
  %46 = icmp eq i64 %45, 9223372036854775807
  br i1 %46, label %47, label %59

47:                                               ; preds = %42, %27
  br label %48

48:                                               ; preds = %47
  br i1 true, label %49, label %51

49:                                               ; preds = %48
  %50 = call zeroext i1 @errstart_cold(i32 noundef 21, ptr noundef null) #8
  br i1 %50, label %53, label %56

51:                                               ; preds = %48
  %52 = call zeroext i1 @errstart(i32 noundef 21, ptr noundef null)
  br i1 %52, label %53, label %56

53:                                               ; preds = %51, %49
  %54 = call i32 @errcode(i32 noundef 134217858)
  %55 = call i32 (ptr, ...) @errmsg(ptr noundef @.str.25)
  call void @errfinish(ptr noundef @.str.3, i32 noundef 2103, ptr noundef @__func__.time_mi_interval)
  br label %56

56:                                               ; preds = %53, %51, %49
  unreachable

57:                                               ; No predecessors!
  br label %58

58:                                               ; preds = %57
  br label %59

59:                                               ; preds = %58, %42, %37, %32
  %60 = load i64, ptr %3, align 8
  %61 = load ptr, ptr %4, align 8
  %62 = getelementptr inbounds nuw %struct.Interval, ptr %61, i32 0, i32 0
  %63 = load i64, ptr %62, align 8
  %64 = sub i64 %60, %63
  store i64 %64, ptr %5, align 8
  %65 = load i64, ptr %5, align 8
  %66 = sdiv i64 %65, 86400000000
  %67 = mul i64 %66, 86400000000
  %68 = load i64, ptr %5, align 8
  %69 = sub i64 %68, %67
  store i64 %69, ptr %5, align 8
  %70 = load i64, ptr %5, align 8
  %71 = icmp slt i64 %70, 0
  br i1 %71, label %72, label %75

72:                                               ; preds = %59
  %73 = load i64, ptr %5, align 8
  %74 = add i64 %73, 86400000000
  store i64 %74, ptr %5, align 8
  br label %75

75:                                               ; preds = %72, %59
  %76 = load i64, ptr %5, align 8
  %77 = call i64 @TimeADTGetDatum(i64 noundef %76)
  call void @llvm.lifetime.end.p0(i64 8, ptr %5) #9
  call void @llvm.lifetime.end.p0(i64 8, ptr %4) #9
  call void @llvm.lifetime.end.p0(i64 8, ptr %3) #9
  ret i64 %77
}